; Function Attrs: nofree nounwind null_pointer_is_valid sspstrong memory(read, inaccessiblemem: none) uwtable
define noundef ptr @xml_get_tag(ptr noundef readonly captures(none) %0, ptr noundef readonly captures(address_is_null) %1) local_unnamed_addr #0 {
  %3 = getelementptr inbounds nuw i8, ptr %0, i64 16
  %.017 = load ptr, ptr %3, align 8
  %.not18 = icmp eq ptr %.017, null
  br i1 %.not18, label %._crit_edge, label %.lr.ph

.lr.ph:                                           ; preds = %2
  %.not14 = icmp eq ptr %1, null
  br i1 %.not14, label %.lr.ph.split.us, label %.lr.ph.split

.lr.ph.split.us:                                  ; preds = %.lr.ph, %6
  %.019.us = phi ptr [ %.0.us, %6 ], [ %.017, %.lr.ph ]
  %4 = load i32, ptr %.019.us, align 8
  %5 = icmp eq i32 %4, 1
  br i1 %5, label %._crit_edge, label %6

6:                                                ; preds = %.lr.ph.split.us
  %7 = getelementptr inbounds nuw i8, ptr %.019.us, i64 40
  %.0.us = load ptr, ptr %7, align 8
  %.not.us = icmp eq ptr %.0.us, null
  br i1 %.not.us, label %._crit_edge, label %.lr.ph.split.us, !llvm.loop !6

.lr.ph.split:                                     ; preds = %.lr.ph, %15
  %.019 = phi ptr [ %.0, %15 ], [ %.017, %.lr.ph ]
  %8 = load i32, ptr %.019, align 8
  %9 = icmp eq i32 %8, 1
  br i1 %9, label %10, label %15

10:                                               ; preds = %.lr.ph.split
  %11 = getelementptr inbounds nuw i8, ptr %.019, i64 56
  %12 = load ptr, ptr %11, align 8
  %.not15 = icmp eq ptr %12, null
  br i1 %.not15, label %15, label %13

13:                                               ; preds = %10
  %14 = tail call i32 @strcmp(ptr noundef nonnull dereferenceable(1) %12, ptr noundef nonnull dereferenceable(1) %1) #12
  %.not16 = icmp eq i32 %14, 0
  br i1 %.not16, label %._crit_edge, label %15

15:                                               ; preds = %13, %10, %.lr.ph.split
  %16 = getelementptr inbounds nuw i8, ptr %.019, i64 40
  %.0 = load ptr, ptr %16, align 8
  %.not = icmp eq ptr %.0, null
  br i1 %.not, label %._crit_edge, label %.lr.ph.split, !llvm.loop !6

._crit_edge:                                      ; preds = %15, %13, %6, %.lr.ph.split.us, %2
  %.0.lcssa = phi ptr [ null, %2 ], [ %.019.us, %.lr.ph.split.us ], [ null, %6 ], [ %.019, %13 ], [ null, %15 ]
  ret ptr %.0.lcssa
}